target datalayout = "e-m:e-p270:32:32-p271:32:32-p272:64:64-i64:64-i128:128-f80:128-n8:16:32:64-S128"
target triple = "x86_64-pc-linux-gnu"

%struct.CVodeMemRec = type { ptr, double, ptr, ptr, i32, i32, double, double, ptr, i32, i32, ptr, ptr, i32, i32, ptr, i32, i32, double, double, ptr, i32, i32, i32, i32, ptr, ptr, ptr, i32, i32, ptr, ptr, ptr, i32, double, i32, i32, double, ptr, ptr, ptr, i32, ptr, ptr, i32, i32, i32, double, ptr, ptr, ptr, [13 x ptr], ptr, ptr, ptr, ptr, ptr, ptr, ptr, ptr, ptr, [13 x ptr], ptr, ptr, ptr, ptr, [13 x ptr], ptr, ptr, ptr, ptr, ptr, i32, [13 x ptr], ptr, ptr, ptr, ptr, ptr, i32, i32, double, i32, i32, i32, i32, i32, double, double, double, double, double, double, double, double, [14 x double], [6 x double], [13 x double], double, double, double, double, double, double, double, double, i32, double, double, i32, double, double, ptr, i32, i64, i32, i32, i32, double, double, double, double, double, double, double, double, double, double, double, double, i64, i32, i64, i64, i64, i64, i64, i64, i64, i64, i64, ptr, i64, i64, ptr, i64, i64, ptr, i64, i64, i64, i64, i64, i64, i32, double, double, double, i64, i64, i64, i64, i64, i64, ptr, i32, ptr, i32, ptr, i32, ptr, i32, i32, i64, i32, ptr, i32, ptr, ptr, ptr, ptr, ptr, ptr, i32, i32, ptr, ptr, ptr, ptr, ptr, i64, double, i32, i32, i64, double, double, double, i32, i32, double, i32, i32, i32, i32, i32, i32, i32, i32, i32, i32, i32, i32, i32, i32, i32, i32, ptr, i64, i32, [6 x [4 x double]], i32, i64, ptr, i32, ptr, ptr, double, double, double, ptr, ptr, ptr, double, double, i32, i32, i64, ptr, i32, ptr, i32, i32, [13 x double], ptr, ptr, ptr, i32, ptr, i32 }
%struct._generic_N_Vector = type { ptr, ptr, ptr }
%struct._N_VectorContent_SensWrapper = type { ptr, i32, i32 }

@.str = private unnamed_addr constant [123 x i8] c"generated/home/dtcxzyw/WorkSpace/Projects/compilers/llvm-opt-benchmark/bench/sundials/sundials/src/cvodes/cvodes_nls_stg.c\00", align 1
@.str.1 = private unnamed_addr constant [26 x i8] c"cvode_mem = NULL illegal.\00", align 1
@__func__.cvNlsConvTestSensStg = private unnamed_addr constant [21 x i8] c"cvNlsConvTestSensStg\00", align 1

; Function Attrs: nounwind uwtable
define internal i32 @cvNlsConvTestSensStg(ptr noundef %0, ptr noundef %1, ptr noundef %2, double noundef %3, ptr noundef %4, ptr noundef %5) #0 {
  %7 = alloca i32, align 4
  %8 = alloca ptr, align 8
  %9 = alloca ptr, align 8
  %10 = alloca ptr, align 8
  %11 = alloca double, align 8
  %12 = alloca ptr, align 8
  %13 = alloca ptr, align 8
  %14 = alloca ptr, align 8
  %15 = alloca i32, align 4
  %16 = alloca i32, align 4
  %17 = alloca double, align 8
  %18 = alloca double, align 8
  %19 = alloca ptr, align 8
  %20 = alloca ptr, align 8
  %21 = alloca ptr, align 8
  %22 = alloca i32, align 4
  store ptr %0, ptr %8, align 8, !tbaa !7
  store ptr %1, ptr %9, align 8, !tbaa !42
  store ptr %2, ptr %10, align 8, !tbaa !42
  store double %3, ptr %11, align 8, !tbaa !59
  store ptr %4, ptr %12, align 8, !tbaa !42
  store ptr %5, ptr %13, align 8, !tbaa !3
  call void @llvm.lifetime.start.p0(i64 8, ptr %14) #3
  call void @llvm.lifetime.start.p0(i64 4, ptr %15) #3
  call void @llvm.lifetime.start.p0(i64 4, ptr %16) #3
  call void @llvm.lifetime.start.p0(i64 8, ptr %17) #3
  call void @llvm.lifetime.start.p0(i64 8, ptr %18) #3
  call void @llvm.lifetime.start.p0(i64 8, ptr %19) #3
  call void @llvm.lifetime.start.p0(i64 8, ptr %20) #3
  call void @llvm.lifetime.start.p0(i64 8, ptr %21) #3
  %23 = load ptr, ptr %13, align 8, !tbaa !3
  %24 = icmp eq ptr %23, null
  br i1 %24, label %25, label %26

25:                                               ; preds = %6
  call void (ptr, i32, i32, ptr, ptr, ptr, ...) @cvProcessError(ptr noundef null, i32 noundef -21, i32 noundef 318, ptr noundef @__func__.cvNlsConvTestSensStg, ptr noundef @.str, ptr noundef @.str.1)
  store i32 -21, ptr %7, align 4
  store i32 1, ptr %22, align 4
  br label %136

26:                                               ; preds = %6
  %27 = load ptr, ptr %13, align 8, !tbaa !3
  store ptr %27, ptr %14, align 8, !tbaa !9
  %28 = load ptr, ptr %9, align 8, !tbaa !42
  %29 = getelementptr inbounds nuw %struct._generic_N_Vector, ptr %28, i32 0, i32 0
  %30 = load ptr, ptr %29, align 8, !tbaa !43
  %31 = getelementptr inbounds nuw %struct._N_VectorContent_SensWrapper, ptr %30, i32 0, i32 0
  %32 = load ptr, ptr %31, align 8, !tbaa !46
  store ptr %32, ptr %19, align 8, !tbaa !41
  %33 = load ptr, ptr %10, align 8, !tbaa !42
  %34 = getelementptr inbounds nuw %struct._generic_N_Vector, ptr %33, i32 0, i32 0
  %35 = load ptr, ptr %34, align 8, !tbaa !43
  %36 = getelementptr inbounds nuw %struct._N_VectorContent_SensWrapper, ptr %35, i32 0, i32 0
  %37 = load ptr, ptr %36, align 8, !tbaa !46
  store ptr %37, ptr %20, align 8, !tbaa !41
  %38 = load ptr, ptr %12, align 8, !tbaa !42
  %39 = getelementptr inbounds nuw %struct._generic_N_Vector, ptr %38, i32 0, i32 0
  %40 = load ptr, ptr %39, align 8, !tbaa !43
  %41 = getelementptr inbounds nuw %struct._N_VectorContent_SensWrapper, ptr %40, i32 0, i32 0
  %42 = load ptr, ptr %41, align 8, !tbaa !46
  store ptr %42, ptr %21, align 8, !tbaa !41
  %43 = load ptr, ptr %14, align 8, !tbaa !9
  %44 = load ptr, ptr %20, align 8, !tbaa !41
  %45 = load ptr, ptr %21, align 8, !tbaa !41
  %46 = call double @cvSensNorm(ptr noundef %43, ptr noundef %44, ptr noundef %45)
  store double %46, ptr %17, align 8, !tbaa !59
  %47 = load ptr, ptr %8, align 8, !tbaa !7
  %48 = call i32 @SUNNonlinSolGetCurIter(ptr noundef %47, ptr noundef %15)
  store i32 %48, ptr %16, align 4, !tbaa !34
  %49 = load i32, ptr %16, align 4, !tbaa !34
  %50 = icmp ne i32 %49, 0
  br i1 %50, label %51, label %52

51:                                               ; preds = %26
  store i32 -21, ptr %7, align 4
  store i32 1, ptr %22, align 4
  br label %136

52:                                               ; preds = %26
  %53 = load i32, ptr %15, align 4, !tbaa !34
  %54 = icmp sgt i32 %53, 0
  br i1 %54, label %55, label %81

55:                                               ; preds = %52
  %56 = load ptr, ptr %14, align 8, !tbaa !9
  %57 = getelementptr inbounds nuw %struct.CVodeMemRec, ptr %56, i32 0, i32 103
  %58 = load double, ptr %57, align 8, !tbaa !62
  %59 = fmul double 3.000000e-01, %58
  %60 = load double, ptr %17, align 8, !tbaa !59
  %61 = load ptr, ptr %14, align 8, !tbaa !9
  %62 = getelementptr inbounds nuw %struct.CVodeMemRec, ptr %61, i32 0, i32 104
  %63 = load double, ptr %62, align 8, !tbaa !63
  %64 = fdiv double %60, %63
  %65 = fcmp ogt double %59, %64
  br i1 %65, label %66, label %71

66:                                               ; preds = %55
  %67 = load ptr, ptr %14, align 8, !tbaa !9
  %68 = getelementptr inbounds nuw %struct.CVodeMemRec, ptr %67, i32 0, i32 103
  %69 = load double, ptr %68, align 8, !tbaa !62
  %70 = fmul double 3.000000e-01, %69
  br label %77

71:                                               ; preds = %55
  %72 = load double, ptr %17, align 8, !tbaa !59
  %73 = load ptr, ptr %14, align 8, !tbaa !9
  %74 = getelementptr inbounds nuw %struct.CVodeMemRec, ptr %73, i32 0, i32 104
  %75 = load double, ptr %74, align 8, !tbaa !63
  %76 = fdiv double %72, %75
  br label %77

77:                                               ; preds = %71, %66
  %78 = phi double [ %70, %66 ], [ %76, %71 ]
  %79 = load ptr, ptr %14, align 8, !tbaa !9
  %80 = getelementptr inbounds nuw %struct.CVodeMemRec, ptr %79, i32 0, i32 103
  store double %78, ptr %80, align 8, !tbaa !62
  br label %81

81:                                               ; preds = %77, %52
  %82 = load double, ptr %17, align 8, !tbaa !59
  %83 = load ptr, ptr %14, align 8, !tbaa !9
  %84 = getelementptr inbounds nuw %struct.CVodeMemRec, ptr %83, i32 0, i32 103
  %85 = load double, ptr %84, align 8, !tbaa !62
  %86 = fcmp olt double 1.000000e+00, %85
  br i1 %86, label %87, label %88

87:                                               ; preds = %81
  br label %92

88:                                               ; preds = %81
  %89 = load ptr, ptr %14, align 8, !tbaa !9
  %90 = getelementptr inbounds nuw %struct.CVodeMemRec, ptr %89, i32 0, i32 103
  %91 = load double, ptr %90, align 8, !tbaa !62
  br label %92

92:                                               ; preds = %88, %87
  %93 = phi double [ 1.000000e+00, %87 ], [ %91, %88 ]
  %94 = fmul double %82, %93
  %95 = load double, ptr %11, align 8, !tbaa !59
  %96 = fdiv double %94, %95
  store double %96, ptr %18, align 8, !tbaa !59
  %97 = load double, ptr %18, align 8, !tbaa !59
  %98 = fcmp ole double %97, 1.000000e+00
  br i1 %98, label %99, label %121

99:                                               ; preds = %92
  %100 = load ptr, ptr %14, align 8, !tbaa !9
  %101 = getelementptr inbounds nuw %struct.CVodeMemRec, ptr %100, i32 0, i32 35
  %102 = load i32, ptr %101, align 8, !tbaa !64
  %103 = icmp ne i32 %102, 0
  br i1 %103, label %104, label %120

104:                                              ; preds = %99
  %105 = load i32, ptr %15, align 4, !tbaa !34
  %106 = icmp eq i32 %105, 0
  br i1 %106, label %107, label %109

107:                                              ; preds = %104
  %108 = load double, ptr %17, align 8, !tbaa !59
  br label %114

109:                                              ; preds = %104
  %110 = load ptr, ptr %14, align 8, !tbaa !9
  %111 = load ptr, ptr %19, align 8, !tbaa !41
  %112 = load ptr, ptr %21, align 8, !tbaa !41
  %113 = call double @cvSensNorm(ptr noundef %110, ptr noundef %111, ptr noundef %112)
  br label %114

114:                                              ; preds = %109, %107
  %115 = phi double [ %108, %107 ], [ %113, %109 ]
  %116 = load ptr, ptr %14, align 8, !tbaa !9
  %117 = getelementptr inbounds nuw %struct.CVodeMemRec, ptr %116, i32 0, i32 108
  store double %115, ptr %117, align 8, !tbaa !65
  %118 = load ptr, ptr %14, align 8, !tbaa !9
  %119 = getelementptr inbounds nuw %struct.CVodeMemRec, ptr %118, i32 0, i32 109
  store i32 1, ptr %119, align 8, !tbaa !50
  br label %120

120:                                              ; preds = %114, %99
  store i32 0, ptr %7, align 4
  store i32 1, ptr %22, align 4
  br label %136

121:                                              ; preds = %92
  %122 = load i32, ptr %15, align 4, !tbaa !34
  %123 = icmp sge i32 %122, 1
  br i1 %123, label %124, label %132

124:                                              ; preds = %121
  %125 = load double, ptr %17, align 8, !tbaa !59
  %126 = load ptr, ptr %14, align 8, !tbaa !9
  %127 = getelementptr inbounds nuw %struct.CVodeMemRec, ptr %126, i32 0, i32 104
  %128 = load double, ptr %127, align 8, !tbaa !63
  %129 = fmul double 2.000000e+00, %128
  %130 = fcmp ogt double %125, %129
  br i1 %130, label %131, label %132

131:                                              ; preds = %124
  store i32 902, ptr %7, align 4
  store i32 1, ptr %22, align 4
  br label %136

132:                                              ; preds = %124, %121
  %133 = load double, ptr %17, align 8, !tbaa !59
  %134 = load ptr, ptr %14, align 8, !tbaa !9
  %135 = getelementptr inbounds nuw %struct.CVodeMemRec, ptr %134, i32 0, i32 104
  store double %133, ptr %135, align 8, !tbaa !63
  store i32 901, ptr %7, align 4
  store i32 1, ptr %22, align 4
  br label %136

136:                                              ; preds = %132, %131, %120, %51, %25
  call void @llvm.lifetime.end.p0(i64 8, ptr %21) #3
  call void @llvm.lifetime.end.p0(i64 8, ptr %20) #3
  call void @llvm.lifetime.end.p0(i64 8, ptr %19) #3
  call void @llvm.lifetime.end.p0(i64 8, ptr %18) #3
  call void @llvm.lifetime.end.p0(i64 8, ptr %17) #3
  call void @llvm.lifetime.end.p0(i64 4, ptr %16) #3
  call void @llvm.lifetime.end.p0(i64 4, ptr %15) #3
  call void @llvm.lifetime.end.p0(i64 8, ptr %14) #3
  %137 = load i32, ptr %7, align 4
  ret i32 %137
}