; Function Attrs: nounwind uwtable
define internal range(i32 -21, 903) i32 @cvNlsConvTestSensStg(ptr noundef %0, ptr noundef readonly captures(none) %1, ptr noundef readonly captures(none) %2, double noundef %3, ptr noundef readonly captures(none) %4, ptr noundef %5) #0 {
  %7 = alloca i32, align 4
  call void @llvm.lifetime.start.p0(i64 4, ptr nonnull %7) #3
  %8 = icmp eq ptr %5, null
  br i1 %8, label %9, label %10

9:                                                ; preds = %6
  tail call void (ptr, i32, i32, ptr, ptr, ptr, ...) @cvProcessError(ptr noundef null, i32 noundef -21, i32 noundef 318, ptr noundef nonnull @__func__.cvNlsConvTestSensStg, ptr noundef nonnull @.str, ptr noundef nonnull @.str.1) #3
  br label %55

10:                                               ; preds = %6
  %11 = load ptr, ptr %1, align 8, !tbaa !40
  %12 = load ptr, ptr %11, align 8, !tbaa !43
  %13 = load ptr, ptr %2, align 8, !tbaa !40
  %14 = load ptr, ptr %13, align 8, !tbaa !43
  %15 = load ptr, ptr %4, align 8, !tbaa !40
  %16 = load ptr, ptr %15, align 8, !tbaa !43
  %17 = tail call double @cvSensNorm(ptr noundef nonnull %5, ptr noundef %14, ptr noundef %16) #3
  %18 = call i32 @SUNNonlinSolGetCurIter(ptr noundef %0, ptr noundef nonnull %7) #3
  %.not = icmp eq i32 %18, 0
  br i1 %.not, label %19, label %55

19:                                               ; preds = %10
  %20 = load i32, ptr %7, align 4, !tbaa !57
  %21 = icmp sgt i32 %20, 0
  %22 = getelementptr inbounds nuw i8, ptr %5, i64 1352
  %23 = load double, ptr %22, align 8, !tbaa !58
  br i1 %21, label %24, label %.thread

24:                                               ; preds = %19
  %25 = fmul double %23, 3.000000e-01
  %26 = getelementptr inbounds nuw i8, ptr %5, i64 1360
  %27 = load double, ptr %26, align 8, !tbaa !59
  %28 = fdiv double %17, %27
  %29 = fcmp ogt double %25, %28
  %. = select i1 %29, double %25, double %28
  store double %., ptr %22, align 8, !tbaa !58
  %30 = fcmp ogt double %., 1.000000e+00
  %31 = select i1 %30, double 1.000000e+00, double %.
  %32 = fmul double %17, %31
  %33 = fdiv double %32, %3
  %34 = fcmp ugt double %33, 1.000000e+00
  br i1 %34, label %51, label %40

.thread:                                          ; preds = %19
  %35 = fcmp ogt double %23, 1.000000e+00
  %36 = select i1 %35, double 1.000000e+00, double %23
  %37 = fmul double %17, %36
  %38 = fdiv double %37, %3
  %39 = fcmp ugt double %38, 1.000000e+00
  br i1 %39, label %.thread38, label %40

40:                                               ; preds = %.thread, %24
  %41 = getelementptr inbounds nuw i8, ptr %5, i64 224
  %42 = load i32, ptr %41, align 8, !tbaa !60
  %.not37 = icmp eq i32 %42, 0
  br i1 %.not37, label %55, label %43

43:                                               ; preds = %40
  %44 = icmp eq i32 %20, 0
  br i1 %44, label %47, label %45

45:                                               ; preds = %43
  %46 = call double @cvSensNorm(ptr noundef nonnull %5, ptr noundef %12, ptr noundef %16) #3
  br label %47

47:                                               ; preds = %43, %45
  %48 = phi double [ %46, %45 ], [ %17, %43 ]
  %49 = getelementptr inbounds nuw i8, ptr %5, i64 1392
  store double %48, ptr %49, align 8, !tbaa !61
  %50 = getelementptr inbounds nuw i8, ptr %5, i64 1400
  store i32 1, ptr %50, align 8, !tbaa !45
  br label %55

51:                                               ; preds = %24
  %52 = fmul double %27, 2.000000e+00
  %53 = fcmp ogt double %17, %52
  br i1 %53, label %55, label %.thread38

.thread38:                                        ; preds = %.thread, %51
  %54 = getelementptr inbounds nuw i8, ptr %5, i64 1360
  store double %17, ptr %54, align 8, !tbaa !59
  br label %55

55:                                               ; preds = %51, %40, %47, %10, %.thread38, %9
  %.0 = phi i32 [ -21, %9 ], [ 901, %.thread38 ], [ -21, %10 ], [ 0, %47 ], [ 0, %40 ], [ 902, %51 ]
  call void @llvm.lifetime.end.p0(i64 4, ptr nonnull %7) #3
  ret i32 %.0
}